; Function Attrs: mustprogress nounwind uwtable
define void @_ZN6icu_775EditsD2Ev(ptr noundef nonnull readonly align 8 dereferenceable(232) %0) unnamed_addr #0 align 2 personality ptr @__gxx_personality_v0 {
  %2 = load ptr, ptr %0, align 8, !tbaa !15
  %3 = getelementptr inbounds nuw i8, ptr %0, i64 28
  %.not.i = icmp eq ptr %2, %3
  br i1 %.not.i, label %_ZN6icu_775Edits12releaseArrayEv.exit, label %4

4:                                                ; preds = %1
  invoke void @uprv_free_77(ptr noundef %2)
          to label %_ZN6icu_775Edits12releaseArrayEv.exit unwind label %5

5:                                                ; preds = %4
  %6 = landingpad { ptr, i32 }
          catch ptr null
  %7 = extractvalue { ptr, i32 } %6, 0
  tail call void @__clang_call_terminate(ptr %7) #18
  unreachable

_ZN6icu_775Edits12releaseArrayEv.exit:            ; preds = %1, %4
  ret void
}